target datalayout = "e-m:e-p270:32:32-p271:32:32-p272:64:64-i64:64-i128:128-f80:128-n8:16:32:64-S128"
target triple = "x86_64-unknown-linux-gnu"

%"struct.icu_75::CollationSettings" = type <{ %"class.icu_75::SharedObject", i32, i32, ptr, i32, [4 x i8], ptr, i32, [4 x i8], ptr, i32, i32, i32, [384 x i16], [4 x i8] }>
%"class.icu_75::SharedObject" = type { %"class.icu_75::UObject", i32, %"struct.std::atomic", ptr }
%"class.icu_75::UObject" = type { ptr }
%"struct.std::atomic" = type { %"struct.std::__atomic_base" }
%"struct.std::__atomic_base" = type { i32 }

@_ZTVN6icu_7517CollationSettingsE = unnamed_addr constant { [5 x ptr] } { [5 x ptr] [ptr null, ptr @_ZTIN6icu_7517CollationSettingsE, ptr @_ZN6icu_7517CollationSettingsD1Ev, ptr @_ZN6icu_7517CollationSettingsD0Ev, ptr @_ZNK6icu_757UObject17getDynamicClassIDEv] }, align 8

; Function Attrs: mustprogress nounwind uwtable
define void @_ZN6icu_7517CollationSettingsD2Ev(ptr noundef nonnull align 8 dereferenceable(852) %this) unnamed_addr #1 align 2 personality ptr @__gxx_personality_v0 {
entry:
  %this.addr = alloca ptr, align 8
  store ptr %this, ptr %this.addr, align 8
  %this1 = load ptr, ptr %this.addr, align 8
  store ptr getelementptr inbounds ({ [5 x ptr] }, ptr @_ZTVN6icu_7517CollationSettingsE, i32 0, i32 0, i32 2), ptr %this1, align 8
  %reorderCodesCapacity = getelementptr inbounds %"struct.icu_75::CollationSettings", ptr %this1, i32 0, i32 11
  %0 = load i32, ptr %reorderCodesCapacity, align 4
  %cmp = icmp ne i32 %0, 0
  br i1 %cmp, label %if.then, label %if.end

if.then:                                          ; preds = %entry
  %reorderCodes = getelementptr inbounds %"struct.icu_75::CollationSettings", ptr %this1, i32 0, i32 9
  %1 = load ptr, ptr %reorderCodes, align 8
  invoke void @uprv_free_75(ptr noundef %1)
          to label %invoke.cont unwind label %terminate.lpad

invoke.cont:                                      ; preds = %if.then
  br label %if.end

if.end:                                           ; preds = %invoke.cont, %entry
  call void @_ZN6icu_7512SharedObjectD2Ev(ptr noundef nonnull align 8 dereferenceable(24) %this1) #7
  ret void

terminate.lpad:                                   ; preds = %if.then
  %2 = landingpad { ptr, i32 }
          catch ptr null
  %3 = extractvalue { ptr, i32 } %2, 0
  call void @__clang_call_terminate(ptr %3) #8
  unreachable
}