; Function Attrs: mustprogress nounwind uwtable
define void @_ZN6icu_7517CollationSettingsD2Ev(ptr noundef nonnull align 8 dereferenceable(852) %this) unnamed_addr #3 align 2 personality ptr @__gxx_personality_v0 {
entry:
  store ptr getelementptr inbounds ({ [5 x ptr] }, ptr @_ZTVN6icu_7517CollationSettingsE, i64 0, i32 0, i64 2), ptr %this, align 8
  %reorderCodesCapacity = getelementptr inbounds i8, ptr %this, i64 76
  %0 = load i32, ptr %reorderCodesCapacity, align 4
  %cmp.not = icmp eq i32 %0, 0
  br i1 %cmp.not, label %if.end, label %if.then

if.then:                                          ; preds = %entry
  %reorderCodes = getelementptr inbounds i8, ptr %this, i64 64
  %1 = load ptr, ptr %reorderCodes, align 8
  invoke void @uprv_free_75(ptr noundef %1)
          to label %if.end unwind label %terminate.lpad

if.end:                                           ; preds = %if.then, %entry
  tail call void @_ZN6icu_7512SharedObjectD2Ev(ptr noundef nonnull align 8 dereferenceable(24) %this) #13
  ret void

terminate.lpad:                                   ; preds = %if.then
  %2 = landingpad { ptr, i32 }
          catch ptr null
  %3 = extractvalue { ptr, i32 } %2, 0
  tail call void @__clang_call_terminate(ptr %3) #15
  unreachable
}